; Function Attrs: nounwind uwtable
define ptr @l___private_Lean_Data_FuzzyMatching_0__Lean_FuzzyMatching_containsInOrderLower___boxed(ptr noundef %0, ptr noundef %1) local_unnamed_addr #0 {
  %3 = getelementptr i8, ptr %0, i64 8
  %.val.i = load i64, ptr %3, align 8, !tbaa !13
  %.mask.i = and i64 %.val.i, 9223372036854775807
  %.not.i4 = icmp eq i64 %.mask.i, 1
  br i1 %.not.i4, label %6, label %4

4:                                                ; preds = %2
  %5 = tail call ptr @l___private_Lean_Data_FuzzyMatching_0__Lean_FuzzyMatching_containsInOrderLower___lambda__2(ptr noundef nonnull %0, ptr noundef %1, ptr nonnull poison)
  br label %l___private_Lean_Data_FuzzyMatching_0__Lean_FuzzyMatching_containsInOrderLower.exit

6:                                                ; preds = %2
  %7 = ptrtoint ptr %0 to i64
  %8 = and i64 %7, 1
  %.not15.i = icmp eq i64 %8, 0
  br i1 %.not15.i, label %9, label %l___private_Lean_Data_FuzzyMatching_0__Lean_FuzzyMatching_containsInOrderLower.exit

9:                                                ; preds = %6
  %10 = load i32, ptr %0, align 4, !tbaa !5
  %11 = icmp sgt i32 %10, 1
  br i1 %11, label %12, label %14, !prof !10

12:                                               ; preds = %9
  %13 = add nsw i32 %10, -1
  store i32 %13, ptr %0, align 4, !tbaa !5
  br label %l___private_Lean_Data_FuzzyMatching_0__Lean_FuzzyMatching_containsInOrderLower.exit

14:                                               ; preds = %9
  %.not.i13.i = icmp eq i32 %10, 0
  br i1 %.not.i13.i, label %l___private_Lean_Data_FuzzyMatching_0__Lean_FuzzyMatching_containsInOrderLower.exit, label %15

15:                                               ; preds = %14
  tail call void @lean_dec_ref_cold(ptr noundef nonnull %0) #7
  br label %l___private_Lean_Data_FuzzyMatching_0__Lean_FuzzyMatching_containsInOrderLower.exit

l___private_Lean_Data_FuzzyMatching_0__Lean_FuzzyMatching_containsInOrderLower.exit: ; preds = %4, %6, %12, %14, %15
  %.0.i = phi ptr [ %5, %4 ], [ inttoptr (i64 3 to ptr), %15 ], [ inttoptr (i64 3 to ptr), %14 ], [ inttoptr (i64 3 to ptr), %12 ], [ inttoptr (i64 3 to ptr), %6 ]
  %16 = ptrtoint ptr %1 to i64
  %17 = and i64 %16, 1
  %.not = icmp eq i64 %17, 0
  br i1 %.not, label %18, label %lean_dec.exit

18:                                               ; preds = %l___private_Lean_Data_FuzzyMatching_0__Lean_FuzzyMatching_containsInOrderLower.exit
  %19 = load i32, ptr %1, align 4, !tbaa !5
  %20 = icmp sgt i32 %19, 1
  br i1 %20, label %21, label %23, !prof !10

21:                                               ; preds = %18
  %22 = add nsw i32 %19, -1
  store i32 %22, ptr %1, align 4, !tbaa !5
  br label %lean_dec.exit

23:                                               ; preds = %18
  %.not.i = icmp eq i32 %19, 0
  br i1 %.not.i, label %lean_dec.exit, label %24

24:                                               ; preds = %23
  tail call void @lean_dec_ref_cold(ptr noundef nonnull %1) #7
  br label %lean_dec.exit

lean_dec.exit:                                    ; preds = %24, %23, %21, %l___private_Lean_Data_FuzzyMatching_0__Lean_FuzzyMatching_containsInOrderLower.exit
  ret ptr %.0.i
}